#include <math.h>
#include <stdio.h>
#include <stdlib.h>
#include <string.h>

void main()
{
    int i,j,k,n,a[300],b[300];
    scanf("%d",&n);
    for (i=0;i<n;i++)
    {
        scanf("%d",&*(a+i));
    }
    *b=*a;j=1;
    for (i=0;i<n;i++)
    {
        for (k=0;k<j;k++)
        {
        	if (*(a+i)==*(b+k)) break;
        }
        if (k==j) {*(b+j)=*(a+i);j++;}        
    }
    
    for (i=0;i<j-1;i++)
    {printf("%d,",*(b+i));}
    printf("%d",*(b+j-1));
}